EXPORTS 
	??_R0?AVbad_cast@std@@@8 	 DATA
	??_R0?AVexception@std@@@8 	 DATA
	?_Psave@?$_Facetptr@V?$ctype@D@std@@@std@@2PEBVfacet@locale@2@EB 	 DATA
	??$?0AEAPEAV_Facet_base@std@@@?$_Compressed_pair@U?$default_delete@V_Facet_base@std@@@std@@PEAV_Facet_base@2@$00@std@@QEAA@U_Zero_then_variadic_args_t@1@AEAPEAV_Facet_base@1@@Z
	??$?0U?$default_delete@V_Facet_base@std@@@std@@$0A@@?$unique_ptr@V_Facet_base@std@@U?$default_delete@V_Facet_base@std@@@2@@std@@QEAA@PEAV_Facet_base@1@@Z
	??$BitCast@IM@double_conversion@@YAIAEBM@Z
	??$BitCast@MI@double_conversion@@YAMAEBI@Z
	??$BitCast@N_K@double_conversion@@YANAEB_K@Z
	??$BitCast@_KN@double_conversion@@YA_KAEBN@Z
	??$StringTo@M@StringToDoubleConverter@double_conversion@@QEBAMPEBDHPEAH@Z
	??$StringTo@M@StringToDoubleConverter@double_conversion@@QEBAMPEBGHPEAH@Z
	??$StringTo@N@StringToDoubleConverter@double_conversion@@QEBANPEBDHPEAH@Z
	??$StringTo@N@StringToDoubleConverter@double_conversion@@QEBANPEBGHPEAH@Z
	??$StringToIeee@PEBD@StringToDoubleConverter@double_conversion@@AEBANPEBDH_NPEAH@Z
	??$StringToIeee@PEBG@StringToDoubleConverter@double_conversion@@AEBANPEBGH_NPEAH@Z
	??$_Getvals@_W@?$time_get@DV?$istreambuf_iterator@DU?$char_traits@D@std@@@std@@@std@@IEAAX_WAEBV_Locinfo@1@@Z
	??$_Getvals@_W@?$time_get@_WV?$istreambuf_iterator@_WU?$char_traits@_W@std@@@std@@@std@@IEAAX_WAEBV_Locinfo@1@@Z
	??$_Maklocstr@D@std@@YAPEADPEBDPEADAEBU_Cvtvec@@@Z
	??$_Maklocstr@_W@std@@YAPEA_WPEBDPEA_WAEBU_Cvtvec@@@Z
	??$exchange@PEAV_Facet_base@std@@$$T@std@@YAPEAV_Facet_base@0@AEAPEAV10@$$QEA$$T@Z
	??$max@H@std@@YAAEBHAEBH0@Z
	??$min@F@std@@YAAEBFAEBF0@Z
	??$min@H@std@@YAAEBHAEBH0@Z
	??$use_facet@V?$ctype@D@std@@@std@@YAAEBV?$ctype@D@0@AEBVlocale@0@@Z
	??0?$Vector@$$CBD@double_conversion@@QEAA@PEBDH@Z
	??0?$Vector@$$CBD@double_conversion@@QEAA@XZ
	??0?$Vector@D@double_conversion@@QEAA@PEADH@Z
	??0Bignum@double_conversion@@QEAA@XZ
	??0DiyFp@double_conversion@@QEAA@XZ
	??0DiyFp@double_conversion@@QEAA@_KH@Z
	??0Double@double_conversion@@QEAA@N@Z
	??0Double@double_conversion@@QEAA@VDiyFp@1@@Z
	??0Double@double_conversion@@QEAA@_K@Z
	??0DoubleToStringConverter@double_conversion@@QEAA@HPEBD0DHHHHH@Z
	??0Single@double_conversion@@QEAA@I@Z
	??0Single@double_conversion@@QEAA@M@Z
	??0UInt128@double_conversion@@QEAA@_K0@Z
	??0bad_cast@std@@QEAA@AEBV01@@Z
	??0bad_cast@std@@QEAA@XZ
	??0exception@std@@QEAA@AEBV01@@Z
	??0exception@std@@QEAA@QEBDH@Z
	??1?$unique_ptr@V_Facet_base@std@@U?$default_delete@V_Facet_base@std@@@2@@std@@QEAA@XZ
	??1bad_cast@std@@UEAA@XZ
	??1exception@std@@UEAA@XZ
	??A?$Vector@$$CBD@double_conversion@@QEBAAEBDH@Z
	??A?$Vector@D@double_conversion@@QEBAAEADH@Z
	??R?$default_delete@V_Facet_base@std@@@std@@QEBAXPEAV_Facet_base@1@@Z
	??_7bad_cast@std@@6B@
	??_7exception@std@@6B@
	?AddBignum@Bignum@double_conversion@@QEAAXAEBV12@@Z
	?AddCharacter@StringBuilder@double_conversion@@QEAAXD@Z
	?AddPadding@StringBuilder@double_conversion@@QEAAXDH@Z
	?AddString@StringBuilder@double_conversion@@QEAAXPEBD@Z
	?AddSubstring@StringBuilder@double_conversion@@QEAAXPEBDH@Z
	?AddUInt64@Bignum@double_conversion@@QEAAX_K@Z
	?Align@Bignum@double_conversion@@AEAAXAEBV12@@Z
	?AsDiyFp@Double@double_conversion@@QEBA?AVDiyFp@2@XZ
	?AsDiyFp@Single@double_conversion@@QEBA?AVDiyFp@2@XZ
	?AsNormalizedDiyFp@Double@double_conversion@@QEBA?AVDiyFp@2@XZ
	?AsUint32@Single@double_conversion@@QEBAIXZ
	?AsUint64@Double@double_conversion@@QEBA_KXZ
	?AssignBignum@Bignum@double_conversion@@QEAAXAEBV12@@Z
	?AssignDecimalString@Bignum@double_conversion@@QEAAXV?$Vector@$$CBD@2@@Z
	?AssignHexString@Bignum@double_conversion@@QEAAXV?$Vector@$$CBD@2@@Z
	?AssignPowerUInt16@Bignum@double_conversion@@QEAAXGH@Z
	?AssignUInt16@Bignum@double_conversion@@QEAAXG@Z
	?AssignUInt64@Bignum@double_conversion@@QEAAX_K@Z
	?BigitLength@Bignum@double_conversion@@AEBAHXZ
	?BigitOrZero@Bignum@double_conversion@@AEBAIH@Z
	?BigitsShiftLeft@Bignum@double_conversion@@AEAAXH@Z
	?BignumDtoa@double_conversion@@YAXNW4BignumDtoaMode@1@HV?$Vector@D@1@PEAH2@Z
	?BitAt@UInt128@double_conversion@@QEBAHH@Z
	?Clamp@Bignum@double_conversion@@AEAAXXZ
	?Compare@Bignum@double_conversion@@SAHAEBV12@0@Z
	?CreateDecimalRepresentation@DoubleToStringConverter@double_conversion@@AEBAXPEBDHHHPEAVStringBuilder@2@@Z
	?CreateExponentialRepresentation@DoubleToStringConverter@double_conversion@@AEBAXPEBDHHPEAVStringBuilder@2@@Z
	?DivModPowerOf2@UInt128@double_conversion@@QEAAHH@Z
	?DivideModuloIntBignum@Bignum@double_conversion@@QEAAGAEBV12@@Z
	?DiyFpToUint64@Double@double_conversion@@CA_KVDiyFp@2@@Z
	?DoubleToAscii@DoubleToStringConverter@double_conversion@@SAXNW4DtoaMode@12@HPEADHPEA_NPEAH3@Z
	?EcmaScriptConverter@DoubleToStringConverter@double_conversion@@SAAEBV12@XZ
	?EnsureCapacity@Bignum@double_conversion@@CAXH@Z
	?Equal@Bignum@double_conversion@@SA_NAEBV12@0@Z
	?Exponent@Double@double_conversion@@QEBAHXZ
	?Exponent@Single@double_conversion@@QEBAHXZ
	?FastDtoa@double_conversion@@YA_NNW4FastDtoaMode@1@HV?$Vector@D@1@PEAH2@Z
	?FastFixedDtoa@double_conversion@@YA_NNHV?$Vector@D@1@PEAH1@Z
	?GetCachedPowerForBinaryExponentRange@PowersOfTenCache@double_conversion@@YAXHHPEAVDiyFp@2@PEAH@Z
	?GetCachedPowerForDecimalExponent@PowersOfTenCache@double_conversion@@YAXHPEAVDiyFp@2@PEAH@Z
	?HandleSpecialValues@DoubleToStringConverter@double_conversion@@AEBA_NNPEAVStringBuilder@2@@Z
	?Infinity@Double@double_conversion@@SANXZ
	?Infinity@Single@double_conversion@@SAMXZ
	?IsDenormal@Double@double_conversion@@QEBA_NXZ
	?IsDenormal@Single@double_conversion@@QEBA_NXZ
	?IsInfinite@Double@double_conversion@@QEBA_NXZ
	?IsNan@Double@double_conversion@@QEBA_NXZ
	?IsSpecial@Double@double_conversion@@QEBA_NXZ
	?IsZero@UInt128@double_conversion@@QEBA_NXZ
	?Less@Bignum@double_conversion@@SA_NAEBV12@0@Z
	?LessEqual@Bignum@double_conversion@@SA_NAEBV12@0@Z
	?LowerBoundaryIsCloser@Double@double_conversion@@QEBA_NXZ
	?LowerBoundaryIsCloser@Single@double_conversion@@QEBA_NXZ
	?Minus@DiyFp@double_conversion@@SA?AV12@AEBV12@0@Z
	?Multiply@DiyFp@double_conversion@@QEAAXAEBV12@@Z
	?Multiply@UInt128@double_conversion@@QEAAXI@Z
	?MultiplyByPowerOfTen@Bignum@double_conversion@@QEAAXH@Z
	?MultiplyByUInt32@Bignum@double_conversion@@QEAAXI@Z
	?MultiplyByUInt64@Bignum@double_conversion@@QEAAX_K@Z
	?NaN@Double@double_conversion@@SANXZ
	?NextDouble@Double@double_conversion@@QEBANXZ
	?Normalize@DiyFp@double_conversion@@QEAAXXZ
	?Normalize@DiyFp@double_conversion@@SA?AV12@AEBV12@@Z
	?NormalizedBoundaries@Double@double_conversion@@QEBAXPEAVDiyFp@2@0@Z
	?NormalizedBoundaries@Single@double_conversion@@QEBAXPEAVDiyFp@2@0@Z
	?PlusCompare@Bignum@double_conversion@@SAHAEBV12@00@Z
	?PreviousDouble@Double@double_conversion@@QEBANXZ
	?RawBigit@Bignum@double_conversion@@AEAAAEAIH@Z
	?RawBigit@Bignum@double_conversion@@AEBAAEBIH@Z
	?Shift@UInt128@double_conversion@@QEAAXH@Z
	?ShiftLeft@Bignum@double_conversion@@QEAAXH@Z
	?Sign@Double@double_conversion@@QEBAHXZ
	?Significand@Double@double_conversion@@QEBA_KXZ
	?Significand@Single@double_conversion@@QEBAIXZ
	?SignificandSizeForOrderOfMagnitude@Double@double_conversion@@SAHH@Z
	?Square@Bignum@double_conversion@@QEAAXXZ
	?StrLength@double_conversion@@YAHPEBD@Z
	?StringToDouble@StringToDoubleConverter@double_conversion@@QEBANPEBDHPEAH@Z
	?StringToDouble@StringToDoubleConverter@double_conversion@@QEBANPEBGHPEAH@Z
	?StringToFloat@StringToDoubleConverter@double_conversion@@QEBAMPEBDHPEAH@Z
	?StringToFloat@StringToDoubleConverter@double_conversion@@QEBAMPEBGHPEAH@Z
	?Strtod@double_conversion@@YANV?$Vector@$$CBD@1@H@Z
	?StrtodTrimmed@double_conversion@@YANV?$Vector@$$CBD@1@H@Z
	?Strtof@double_conversion@@YAMV?$Vector@$$CBD@1@H@Z
	?StrtofTrimmed@double_conversion@@YAMV?$Vector@$$CBD@1@H@Z
	?SubVector@?$Vector@$$CBD@double_conversion@@QEAA?AV12@HH@Z
	?Subtract@DiyFp@double_conversion@@QEAAXAEBV12@@Z
	?SubtractBignum@Bignum@double_conversion@@QEAAXAEBV12@@Z
	?SubtractTimes@Bignum@double_conversion@@AEAAXAEBV12@H@Z
	?Times10@Bignum@double_conversion@@QEAAXXZ
	?Times@DiyFp@double_conversion@@SA?AV12@AEBV12@0@Z
	?ToExponential@DoubleToStringConverter@double_conversion@@QEBA_NNHPEAVStringBuilder@2@@Z
	?ToFixed@DoubleToStringConverter@double_conversion@@QEBA_NNHPEAVStringBuilder@2@@Z
	?ToHexString@Bignum@double_conversion@@QEBA_NPEADH@Z
	?ToPrecision@DoubleToStringConverter@double_conversion@@QEBA_NNHPEAVStringBuilder@2@@Z
	?ToShortestIeeeNumber@DoubleToStringConverter@double_conversion@@AEBA_NNPEAVStringBuilder@2@W4DtoaMode@12@@Z
	?TrimTrailingZeros@double_conversion@@YA?AV?$Vector@$$CBD@1@V21@@Z
	?UpperBoundary@Double@double_conversion@@QEBA?AVDiyFp@2@XZ
	?UpperBoundary@Single@double_conversion@@QEBA?AVDiyFp@2@XZ
	?Zero@Bignum@double_conversion@@AEAAXXZ
	?_Get_first@?$_Compressed_pair@U?$default_delete@V_Facet_base@std@@@std@@PEAV_Facet_base@2@$00@std@@QEAAAEAU?$default_delete@V_Facet_base@std@@@2@XZ
	?_Getfacet@locale@std@@QEBAPEBVfacet@12@_K@Z
	?_Maklocwcs@std@@YAPEA_WPEB_W@Z
	?_Throw_bad_cast@std@@YAXXZ
	?__empty_global_delete@@YAXPEAX@Z
	?__empty_global_delete@@YAXPEAX_K@Z
	?abort_noreturn@@YAXXZ
	?e@DiyFp@double_conversion@@QEBAHXZ
	?f@DiyFp@double_conversion@@QEBA_KXZ
	?is_empty@?$Vector@$$CBD@double_conversion@@QEBA_NXZ
	?last@?$Vector@$$CBD@double_conversion@@QEAAAEBDXZ
	?length@?$Vector@$$CBD@double_conversion@@QEBAHXZ
	?pop_back@?$Vector@$$CBD@double_conversion@@QEAAXXZ
	?release@?$unique_ptr@V_Facet_base@std@@U?$default_delete@V_Facet_base@std@@@2@@std@@QEAAPEAV_Facet_base@2@XZ
	?set_e@DiyFp@double_conversion@@QEAAXH@Z
	?set_f@DiyFp@double_conversion@@QEAAX_K@Z
	?start@?$Vector@$$CBD@double_conversion@@QEBAPEBDXZ
	?value@Double@double_conversion@@QEBANXZ
	?value@Single@double_conversion@@QEBAMXZ
	?what@exception@std@@UEBAPEBDXZ
	wmemcpy
